target datalayout = "e-m:e-p270:32:32-p271:32:32-p272:64:64-i64:64-i128:128-f80:128-n8:16:32:64-S128"
target triple = "x86_64-pc-linux-gnu"

%struct.ComplexArray = type { ptr, ptr }
%struct.DiagonalOp = type { i32, i64, i32, i32, ptr, ptr, %struct.ComplexArray }
%struct.PauliHamil = type { ptr, ptr, i32, i32 }

; Function Attrs: nounwind uwtable
define void @QuESTAssert(i32 noundef %0, i32 noundef %1, ptr noundef %2) #0 {
  %4 = alloca i32, align 4
  %5 = alloca i32, align 4
  %6 = alloca ptr, align 8
  store i32 %0, ptr %4, align 4, !tbaa !9
  store i32 %1, ptr %5, align 4, !tbaa !9
  store ptr %2, ptr %6, align 8, !tbaa !4
  %7 = load i32, ptr %4, align 4, !tbaa !9
  %8 = icmp ne i32 %7, 0
  br i1 %8, label %15, label %9

9:                                                ; preds = %3
  %10 = load i32, ptr %5, align 4, !tbaa !9
  %11 = zext i32 %10 to i64
  %12 = getelementptr inbounds nuw [92 x ptr], ptr @errorMessages, i64 0, i64 %11
  %13 = load ptr, ptr %12, align 8, !tbaa !4
  %14 = load ptr, ptr %6, align 8, !tbaa !4
  call void @invalidQuESTInputError(ptr noundef %13, ptr noundef %14)
  br label %15

15:                                               ; preds = %9, %3
  ret void
}

; Function Attrs: nounwind uwtable
define void @validateDiagPauliHamil(ptr noundef byval(%struct.DiagonalOp) align 8 %0, ptr noundef byval(%struct.PauliHamil) align 8 %1, ptr noundef %2) #0 {
  %4 = alloca ptr, align 8
  %5 = alloca i32, align 4
  store ptr %2, ptr %4, align 8, !tbaa !4
  %6 = getelementptr inbounds nuw %struct.DiagonalOp, ptr %0, i32 0, i32 0
  %7 = load i32, ptr %6, align 8, !tbaa !44
  %8 = getelementptr inbounds nuw %struct.PauliHamil, ptr %1, i32 0, i32 3
  %9 = load i32, ptr %8, align 4, !tbaa !49
  %10 = icmp eq i32 %7, %9
  %11 = zext i1 %10 to i32
  %12 = load ptr, ptr %4, align 8, !tbaa !4
  call void @QuESTAssert(i32 noundef %11, i32 noundef 69, ptr noundef %12)
  call void @llvm.lifetime.start.p0(i64 4, ptr %5) #7
  store i32 0, ptr %5, align 4, !tbaa !9
  br label %13

13:                                               ; preds = %42, %3
  %14 = load i32, ptr %5, align 4, !tbaa !9
  %15 = getelementptr inbounds nuw %struct.PauliHamil, ptr %1, i32 0, i32 2
  %16 = load i32, ptr %15, align 8, !tbaa !51
  %17 = getelementptr inbounds nuw %struct.PauliHamil, ptr %1, i32 0, i32 3
  %18 = load i32, ptr %17, align 4, !tbaa !49
  %19 = mul nsw i32 %16, %18
  %20 = icmp slt i32 %14, %19
  br i1 %20, label %22, label %21

21:                                               ; preds = %13
  call void @llvm.lifetime.end.p0(i64 4, ptr %5) #7
  br label %45

22:                                               ; preds = %13
  %23 = getelementptr inbounds nuw %struct.PauliHamil, ptr %1, i32 0, i32 0
  %24 = load ptr, ptr %23, align 8, !tbaa !52
  %25 = load i32, ptr %5, align 4, !tbaa !9
  %26 = sext i32 %25 to i64
  %27 = getelementptr inbounds i32, ptr %24, i64 %26
  %28 = load i32, ptr %27, align 4, !tbaa !9
  %29 = icmp eq i32 %28, 0
  br i1 %29, label %38, label %30

30:                                               ; preds = %22
  %31 = getelementptr inbounds nuw %struct.PauliHamil, ptr %1, i32 0, i32 0
  %32 = load ptr, ptr %31, align 8, !tbaa !52
  %33 = load i32, ptr %5, align 4, !tbaa !9
  %34 = sext i32 %33 to i64
  %35 = getelementptr inbounds i32, ptr %32, i64 %34
  %36 = load i32, ptr %35, align 4, !tbaa !9
  %37 = icmp eq i32 %36, 3
  br label %38

38:                                               ; preds = %30, %22
  %39 = phi i1 [ true, %22 ], [ %37, %30 ]
  %40 = zext i1 %39 to i32
  %41 = load ptr, ptr %4, align 8, !tbaa !4
  call void @QuESTAssert(i32 noundef %40, i32 noundef 68, ptr noundef %41)
  br label %42

42:                                               ; preds = %38
  %43 = load i32, ptr %5, align 4, !tbaa !9
  %44 = add nsw i32 %43, 1
  store i32 %44, ptr %5, align 4, !tbaa !9
  br label %13

45:                                               ; preds = %21
  ret void
}