; Function Attrs: nounwind uwtable
define void @validateDiagPauliHamil(ptr noundef readonly byval(%struct.DiagonalOp) align 8 captures(none) %0, ptr noundef readonly byval(%struct.PauliHamil) align 8 captures(none) %1, ptr noundef %2) local_unnamed_addr #3 {
  %4 = load i32, ptr %0, align 8, !tbaa !29
  %5 = getelementptr inbounds nuw i8, ptr %1, i64 20
  %6 = load i32, ptr %5, align 4, !tbaa !33
  %.not = icmp eq i32 %4, %6
  br i1 %.not, label %QuESTAssert.exit, label %7

7:                                                ; preds = %3
  tail call void @invalidQuESTInputError(ptr noundef nonnull @.str.71, ptr noundef %2)
  br label %QuESTAssert.exit

QuESTAssert.exit:                                 ; preds = %3, %7
  %8 = getelementptr inbounds nuw i8, ptr %1, i64 16
  %9 = load i32, ptr %8, align 8, !tbaa !35
  %10 = mul nsw i32 %9, %6
  %11 = icmp sgt i32 %10, 0
  br i1 %11, label %.lr.ph, label %._crit_edge

.lr.ph:                                           ; preds = %QuESTAssert.exit
  %12 = load ptr, ptr %1, align 8, !tbaa !36
  %wide.trip.count = zext nneg i32 %10 to i64
  br label %13

._crit_edge:                                      ; preds = %QuESTAssert.exit7, %QuESTAssert.exit
  ret void

13:                                               ; preds = %.lr.ph, %QuESTAssert.exit7
  %indvars.iv = phi i64 [ 0, %.lr.ph ], [ %indvars.iv.next, %QuESTAssert.exit7 ]
  %14 = getelementptr inbounds nuw i32, ptr %12, i64 %indvars.iv
  %15 = load i32, ptr %14, align 4, !tbaa !20
  switch i32 %15, label %16 [
    i32 3, label %QuESTAssert.exit7
    i32 0, label %QuESTAssert.exit7
  ]

16:                                               ; preds = %13
  tail call void @invalidQuESTInputError(ptr noundef nonnull @.str.70, ptr noundef %2)
  br label %QuESTAssert.exit7

QuESTAssert.exit7:                                ; preds = %13, %13, %16
  %indvars.iv.next = add nuw nsw i64 %indvars.iv, 1
  %exitcond.not = icmp eq i64 %indvars.iv.next, %wide.trip.count
  br i1 %exitcond.not, label %._crit_edge, label %13
}